; Function Attrs: mustprogress uwtable
define hidden void @_ZN2cv8tracking4impl14TrackerMILImpl16compute_integralERKNS_3MatERS3_(ptr nonnull readnone align 8 captures(none) %0, ptr noundef nonnull align 8 dereferenceable(96) %1, ptr noundef nonnull align 8 dereferenceable(96) %2) local_unnamed_addr #3 align 2 personality ptr @__gxx_personality_v0 {
  %4 = alloca %"class.cv::Mat", align 8
  %5 = alloca %"class.std::vector.0", align 8
  %6 = alloca %"class.cv::_InputArray", align 8
  %7 = alloca %"class.cv::_OutputArray", align 8
  %8 = alloca %"class.cv::_InputArray", align 8
  %9 = alloca %"class.cv::_OutputArray", align 8
  call void @llvm.lifetime.start.p0(i64 96, ptr nonnull %4) #22
  call void @_ZN2cv3MatC1Ev(ptr noundef nonnull align 8 dereferenceable(96) %4) #22
  call void @llvm.lifetime.start.p0(i64 24, ptr nonnull %5) #22
  call void @llvm.memset.p0.i64(ptr noundef nonnull align 8 dereferenceable(24) %5, i8 0, i64 24, i1 false)
  call void @llvm.lifetime.start.p0(i64 24, ptr nonnull %6) #22
  %10 = getelementptr inbounds nuw i8, ptr %6, i64 16
  store i32 0, ptr %10, align 8, !tbaa !84
  %11 = getelementptr inbounds nuw i8, ptr %6, i64 20
  store i32 0, ptr %11, align 4, !tbaa !85
  store i32 16842752, ptr %6, align 8, !tbaa !86
  %12 = getelementptr inbounds nuw i8, ptr %6, i64 8
  store ptr %1, ptr %12, align 8, !tbaa !88
  call void @llvm.lifetime.start.p0(i64 24, ptr nonnull %7) #22
  %13 = getelementptr inbounds nuw i8, ptr %7, i64 8
  %14 = getelementptr inbounds nuw i8, ptr %7, i64 16
  store i64 0, ptr %14, align 8
  store i32 33619968, ptr %7, align 8, !tbaa !86
  store ptr %4, ptr %13, align 8, !tbaa !88
  invoke void @_ZN2cv8integralERKNS_11_InputArrayERKNS_12_OutputArrayEi(ptr noundef nonnull align 8 dereferenceable(24) %6, ptr noundef nonnull align 8 dereferenceable(24) %7, i32 noundef 5)
          to label %15 unwind label %31

15:                                               ; preds = %3
  call void @llvm.lifetime.end.p0(i64 24, ptr nonnull %7) #22
  call void @llvm.lifetime.end.p0(i64 24, ptr nonnull %6) #22
  call void @llvm.lifetime.start.p0(i64 24, ptr nonnull %8) #22
  %16 = getelementptr inbounds nuw i8, ptr %8, i64 16
  store i32 0, ptr %16, align 8, !tbaa !84
  %17 = getelementptr inbounds nuw i8, ptr %8, i64 20
  store i32 0, ptr %17, align 4, !tbaa !85
  store i32 16842752, ptr %8, align 8, !tbaa !86
  %18 = getelementptr inbounds nuw i8, ptr %8, i64 8
  store ptr %4, ptr %18, align 8, !tbaa !88
  call void @llvm.lifetime.start.p0(i64 24, ptr nonnull %9) #22
  %19 = getelementptr inbounds nuw i8, ptr %9, i64 8
  %20 = getelementptr inbounds nuw i8, ptr %9, i64 16
  store i64 0, ptr %20, align 8
  store i32 33882112, ptr %9, align 8, !tbaa !86
  store ptr %5, ptr %19, align 8, !tbaa !88
  invoke void @_ZN2cv5splitERKNS_11_InputArrayERKNS_12_OutputArrayE(ptr noundef nonnull align 8 dereferenceable(24) %8, ptr noundef nonnull align 8 dereferenceable(24) %9)
          to label %21 unwind label %33

21:                                               ; preds = %15
  call void @llvm.lifetime.end.p0(i64 24, ptr nonnull %9) #22
  call void @llvm.lifetime.end.p0(i64 24, ptr nonnull %8) #22
  %22 = load ptr, ptr %5, align 8, !tbaa !61
  %23 = invoke noundef nonnull align 8 dereferenceable(96) ptr @_ZN2cv3MataSERKS0_(ptr noundef nonnull align 8 dereferenceable(96) %2, ptr noundef nonnull align 8 dereferenceable(96) %22)
          to label %24 unwind label %35

24:                                               ; preds = %21
  %25 = load ptr, ptr %5, align 8, !tbaa !61
  %26 = getelementptr inbounds nuw i8, ptr %5, i64 8
  %27 = load ptr, ptr %26, align 8, !tbaa !59
  %.not4.i.i.i.i = icmp eq ptr %25, %27
  br i1 %.not4.i.i.i.i, label %_ZSt8_DestroyIPN2cv3MatES1_EvT_S3_RSaIT0_E.exit.i, label %.lr.ph.i.i.i.i

.lr.ph.i.i.i.i:                                   ; preds = %24, %.lr.ph.i.i.i.i
  %.05.i.i.i.i = phi ptr [ %28, %.lr.ph.i.i.i.i ], [ %25, %24 ]
  call void @_ZN2cv3MatD1Ev(ptr noundef nonnull align 8 dereferenceable(96) %.05.i.i.i.i) #22
  %28 = getelementptr inbounds nuw i8, ptr %.05.i.i.i.i, i64 96
  %.not.i.i.i.i = icmp eq ptr %28, %27
  br i1 %.not.i.i.i.i, label %_ZSt8_DestroyIPN2cv3MatES1_EvT_S3_RSaIT0_E.exitthread-pre-split.i, label %.lr.ph.i.i.i.i, !llvm.loop !65

_ZSt8_DestroyIPN2cv3MatES1_EvT_S3_RSaIT0_E.exitthread-pre-split.i: ; preds = %.lr.ph.i.i.i.i
  %.pr.i = load ptr, ptr %5, align 8, !tbaa !61
  br label %_ZSt8_DestroyIPN2cv3MatES1_EvT_S3_RSaIT0_E.exit.i

_ZSt8_DestroyIPN2cv3MatES1_EvT_S3_RSaIT0_E.exit.i: ; preds = %_ZSt8_DestroyIPN2cv3MatES1_EvT_S3_RSaIT0_E.exitthread-pre-split.i, %24
  %29 = phi ptr [ %.pr.i, %_ZSt8_DestroyIPN2cv3MatES1_EvT_S3_RSaIT0_E.exitthread-pre-split.i ], [ %25, %24 ]
  %.not.i.i.i = icmp eq ptr %29, null
  br i1 %.not.i.i.i, label %_ZNSt6vectorIN2cv3MatESaIS1_EED2Ev.exit, label %30

30:                                               ; preds = %_ZSt8_DestroyIPN2cv3MatES1_EvT_S3_RSaIT0_E.exit.i
  call void @_ZdlPv(ptr noundef nonnull %29) #24
  br label %_ZNSt6vectorIN2cv3MatESaIS1_EED2Ev.exit

_ZNSt6vectorIN2cv3MatESaIS1_EED2Ev.exit:          ; preds = %_ZSt8_DestroyIPN2cv3MatES1_EvT_S3_RSaIT0_E.exit.i, %30
  call void @llvm.lifetime.end.p0(i64 24, ptr nonnull %5) #22
  call void @_ZN2cv3MatD1Ev(ptr noundef nonnull align 8 dereferenceable(96) %4) #22
  call void @llvm.lifetime.end.p0(i64 96, ptr nonnull %4) #22
  ret void

31:                                               ; preds = %3
  %32 = landingpad { ptr, i32 }
          cleanup
  call void @llvm.lifetime.end.p0(i64 24, ptr nonnull %7) #22
  call void @llvm.lifetime.end.p0(i64 24, ptr nonnull %6) #22
  br label %37

33:                                               ; preds = %15
  %34 = landingpad { ptr, i32 }
          cleanup
  call void @llvm.lifetime.end.p0(i64 24, ptr nonnull %9) #22
  call void @llvm.lifetime.end.p0(i64 24, ptr nonnull %8) #22
  br label %37

35:                                               ; preds = %21
  %36 = landingpad { ptr, i32 }
          cleanup
  br label %37

37:                                               ; preds = %35, %33, %31
  %.pn13 = phi { ptr, i32 } [ %36, %35 ], [ %34, %33 ], [ %32, %31 ]
  call void @_ZNSt6vectorIN2cv3MatESaIS1_EED2Ev(ptr noundef nonnull align 8 dereferenceable(24) %5) #22
  call void @llvm.lifetime.end.p0(i64 24, ptr nonnull %5) #22
  call void @_ZN2cv3MatD1Ev(ptr noundef nonnull align 8 dereferenceable(96) %4) #22
  call void @llvm.lifetime.end.p0(i64 96, ptr nonnull %4) #22
  resume { ptr, i32 } %.pn13
}